target datalayout = "e-m:e-p270:32:32-p271:32:32-p272:64:64-i64:64-i128:128-f80:128-n8:16:32:64-S128"
target triple = "x86_64-pc-linux-gnu"

%struct.v3_ext_ctx = type { i32, ptr, ptr, ptr, ptr, ptr, ptr, ptr }

@.str = private unnamed_addr constant [33 x i8] c"../openssl/crypto/x509/v3_conf.c\00", align 1
@__func__.X509V3_set_issuer_pkey = private unnamed_addr constant [23 x i8] c"X509V3_set_issuer_pkey\00", align 1

; Function Attrs: nounwind uwtable
define i32 @X509V3_set_issuer_pkey(ptr noundef %0, ptr noundef %1) #0 {
  %3 = alloca i32, align 4
  %4 = alloca ptr, align 8
  %5 = alloca ptr, align 8
  store ptr %0, ptr %4, align 8, !tbaa !8
  store ptr %1, ptr %5, align 8, !tbaa !76
  %6 = load ptr, ptr %4, align 8, !tbaa !8
  %7 = icmp eq ptr %6, null
  br i1 %7, label %8, label %9

8:                                                ; preds = %2
  call void @ERR_new()
  call void @ERR_set_debug(ptr noundef @.str, i32 noundef 485, ptr noundef @__func__.X509V3_set_issuer_pkey)
  call void (i32, i32, ptr, ...) @ERR_set_error(i32 noundef 34, i32 noundef 786690, ptr noundef null)
  store i32 0, ptr %3, align 4
  br label %22

9:                                                ; preds = %2
  %10 = load ptr, ptr %4, align 8, !tbaa !8
  %11 = getelementptr inbounds nuw %struct.v3_ext_ctx, ptr %10, i32 0, i32 2
  %12 = load ptr, ptr %11, align 8, !tbaa !72
  %13 = icmp eq ptr %12, null
  br i1 %13, label %14, label %18

14:                                               ; preds = %9
  %15 = load ptr, ptr %5, align 8, !tbaa !76
  %16 = icmp ne ptr %15, null
  br i1 %16, label %17, label %18

17:                                               ; preds = %14
  call void @ERR_new()
  call void @ERR_set_debug(ptr noundef @.str, i32 noundef 489, ptr noundef @__func__.X509V3_set_issuer_pkey)
  call void (i32, i32, ptr, ...) @ERR_set_error(i32 noundef 34, i32 noundef 524550, ptr noundef null)
  store i32 0, ptr %3, align 4
  br label %22

18:                                               ; preds = %14, %9
  %19 = load ptr, ptr %5, align 8, !tbaa !76
  %20 = load ptr, ptr %4, align 8, !tbaa !8
  %21 = getelementptr inbounds nuw %struct.v3_ext_ctx, ptr %20, i32 0, i32 7
  store ptr %19, ptr %21, align 8, !tbaa !75
  store i32 1, ptr %3, align 4
  br label %22

22:                                               ; preds = %18, %17, %8
  %23 = load i32, ptr %3, align 4
  ret i32 %23
}