; Function Attrs: nounwind uwtable
define range(i32 0, 2) i32 @X509V3_set_issuer_pkey(ptr noundef captures(address_is_null) %0, ptr noundef %1) local_unnamed_addr #0 {
  %3 = icmp eq ptr %0, null
  br i1 %3, label %4, label %5

4:                                                ; preds = %2
  tail call void @ERR_new() #6
  tail call void @ERR_set_debug(ptr noundef nonnull @.str, i32 noundef 485, ptr noundef nonnull @__func__.X509V3_set_issuer_pkey) #6
  tail call void (i32, i32, ptr, ...) @ERR_set_error(i32 noundef 34, i32 noundef 786690, ptr noundef null) #6
  br label %13

5:                                                ; preds = %2
  %6 = getelementptr inbounds nuw i8, ptr %0, i64 16
  %7 = load ptr, ptr %6, align 8, !tbaa !49
  %8 = icmp eq ptr %7, null
  %9 = icmp ne ptr %1, null
  %or.cond = and i1 %9, %8
  br i1 %or.cond, label %10, label %11

10:                                               ; preds = %5
  tail call void @ERR_new() #6
  tail call void @ERR_set_debug(ptr noundef nonnull @.str, i32 noundef 489, ptr noundef nonnull @__func__.X509V3_set_issuer_pkey) #6
  tail call void (i32, i32, ptr, ...) @ERR_set_error(i32 noundef 34, i32 noundef 524550, ptr noundef null) #6
  br label %13

11:                                               ; preds = %5
  %12 = getelementptr inbounds nuw i8, ptr %0, i64 56
  store ptr %1, ptr %12, align 8, !tbaa !52
  br label %13

13:                                               ; preds = %11, %10, %4
  %.0 = phi i32 [ 0, %4 ], [ 0, %10 ], [ 1, %11 ]
  ret i32 %.0
}